-----BEGIN CERTIFICATE-----
MIIFbzCCA1egAwIBAgIPAWv5DAXDlEWUdWsHpvydMA0GCSqGSIb3DQEBCwUAMD0x
CzAJBgNVBAYTAkpQMRcwFQYDVQQKDA5SYWt1dGVuIE1vYmlsZTEVMBMGA1UEAwwM
VGVzdCBSb290IENBMB4XDTE5MDcxNjA0MjEyOFoXDTI5MDcxMzA0MjEyOFowQzEL
MAkGA1UEBhMCSlAxFzAVBgNVBAoTDlJha3V0ZW4gTW9iaWxlMRswGQYDVQQDExJU
ZXN0IERDIElzc3VpbmcgQ0EwggIiMA0GCSqGSIb3DQEBAQUAA4ICDwAwggIKAoIC
AQCunFXHWhPUYtRGSnzVnyHybCLAUy0e4YTPi7DiMZV8d1urmQEoTUb7UzmApzYX
EjvSTPq487mFmB2EQMb+FZiuueG6OBtrSCjCM5QDTLoW0Awtr7Bjr9ZGsFDHHJ/U
rQKgEiKw+n7yOEkC3cWHTnQBiQShmV7xYFogrTfNrxoxgvmwQwK6Y0fywkY9o7l/
eoLBKXJz+SWES91pabC1epd2RzKszqJjywDcwirXTp3a7FWsjZNO4qk+ixYQfNjD
fxlemoQw3pHan75i10H9bOa3Ic8eEk56p+8E1nGeUlnPquX8AdcUOi+NFqCEoo4t
4ZbLzZyFmDr176FD7tQYnRIdOa9+SFDZa9NsfA4+RG2dHORRuNQZTnzsFknVSbHa
YTdGnDjglh5q7F2OYuHKZcWMWOK41ey5rGKEBJkLodwjRWQ/+KkBzC3ncgO6ARvQ
g8MmybcvFI3YkdsUXeyTT2CO4GnK/9KowHIZpYHGxEXdjvpIOk+Xog1BwUZQWiJq
6LwDdEYwPQv4D/AbB2BTjkUZrgg7mIohyu/g9fQgLLx+sa2315FyteYgrkdlrHM5
vfuymeWEspbkr1qj+7fpiTiwZWKi7BxKksLvLgHrzrv7vxSRQX4u8y5IRNUaD0Gk
FdejoZnse4Y7lXE+mnJtsUXDa0bLgGIgc4G9Gp44yf3rCwIDAQABo2YwZDAfBgNV
HSMEGDAWgBQcEF4yJpdXa5WeNNFJpXA2tUmdDzAdBgNVHQ4EFgQU8TSZXYMFLuEy
rs4sVIyiowcWtlQwDgYDVR0PAQH/BAQDAgEGMBIGA1UdEwEB/wQIMAYBAf8CAQAw
DQYJKoZIhvcNAQELBQADggIBAE0jxcNWHesEHBTu6vdpC1SklTB87t8TG94sGZ5/
NJhC7D3KcgAxjgMowGzQIa7E+/m3yyXcLiwKfynxRSeqN0nSQ28+20wCtNpcyWq4
A1p2wzlKY2NSfl7tPCVuZNGGiAB6HFH29TcBkIM2tf99euDxk0SGeqZQLUgCxU/I
+E2TwdGZR+LY3waInOPL18GxcsbGqyCacg9wjjSjc9P5brstW5QS5SrgBEQamiwD
EYAbJWHH/3+aeKzA8anQ6S5alXfMQ9yYR+32QsHAK9xpA/iDTjX9zsRe2ifA3zYB
rh7X0oC9OXijnCWir5bswYk/a20p0tYbv/S7Jr5PEWskpiMoOURYrhstT+7aI2yt
lCyFVCr+jpoHjrTzaNuH8hiM/7YryWv8PTii27w7ziNCg2FsoyYo5r7vcZhm6WUo
Dl8LW/r1DIkSLBtukz9iK9UKZ4zB6mCSPnkqca7JlYt9p33RKePg4P9R2+9KsHL9
pE+aCQUGwPXm+LM5bHp/RQKYwfQKrzU8PAJg174eENg6EP8aXyxV5DRvbnm/n61X
cRZq5eeHaIa/GWQC6Bx35cqHHmvFxZER5ijOQHqtEMULmiOgEch9ezZb17mutDZv
y8XsbqYGO7t7GgCntC+tkzfpt/CKPRXDl9hPV/6TDtNefSDwd/K4GoKJnYpnOy3R
ccVj
-----END CERTIFICATE-----
Certificate:
    Data:
        Version: 3 (0x2)
        Serial Number:
            01:6b:f9:0c:05:c3:94:45:94:75:6b:07:a6:fc:9d
    Signature Algorithm: sha256WithRSAEncryption
        Issuer: C=JP, O=Rakuten Mobile, CN=Test Root CA
        Validity
            Not Before: Jul 16 04:21:28 2019 GMT
            Not After : Jul 13 04:21:28 2029 GMT
        Subject: C=JP, O=Rakuten Mobile, CN=Test DC Issuing CA
        Subject Public Key Info:
            Public Key Algorithm: rsaEncryption
                Public-Key: (4096 bit)
                Modulus:
                    00:ae:9c:55:c7:5a:13:d4:62:d4:46:4a:7c:d5:9f:
                    21:f2:6c:22:c0:53:2d:1e:e1:84:cf:8b:b0:e2:31:
                    95:7c:77:5b:ab:99:01:28:4d:46:fb:53:39:80:a7:
                    36:17:12:3b:d2:4c:fa:b8:f3:b9:85:98:1d:84:40:
                    c6:fe:15:98:ae:b9:e1:ba:38:1b:6b:48:28:c2:33:
                    94:03:4c:ba:16:d0:0c:2d:af:b0:63:af:d6:46:b0:
                    50:c7:1c:9f:d4:ad:02:a0:12:22:b0:fa:7e:f2:38:
                    49:02:dd:c5:87:4e:74:01:89:04:a1:99:5e:f1:60:
                    5a:20:ad:37:cd:af:1a:31:82:f9:b0:43:02:ba:63:
                    47:f2:c2:46:3d:a3:b9:7f:7a:82:c1:29:72:73:f9:
                    25:84:4b:dd:69:69:b0:b5:7a:97:76:47:32:ac:ce:
                    a2:63:cb:00:dc:c2:2a:d7:4e:9d:da:ec:55:ac:8d:
                    93:4e:e2:a9:3e:8b:16:10:7c:d8:c3:7f:19:5e:9a:
                    84:30:de:91:da:9f:be:62:d7:41:fd:6c:e6:b7:21:
                    cf:1e:12:4e:7a:a7:ef:04:d6:71:9e:52:59:cf:aa:
                    e5:fc:01:d7:14:3a:2f:8d:16:a0:84:a2:8e:2d:e1:
                    96:cb:cd:9c:85:98:3a:f5:ef:a1:43:ee:d4:18:9d:
                    12:1d:39:af:7e:48:50:d9:6b:d3:6c:7c:0e:3e:44:
                    6d:9d:1c:e4:51:b8:d4:19:4e:7c:ec:16:49:d5:49:
                    b1:da:61:37:46:9c:38:e0:96:1e:6a:ec:5d:8e:62:
                    e1:ca:65:c5:8c:58:e2:b8:d5:ec:b9:ac:62:84:04:
                    99:0b:a1:dc:23:45:64:3f:f8:a9:01:cc:2d:e7:72:
                    03:ba:01:1b:d0:83:c3:26:c9:b7:2f:14:8d:d8:91:
                    db:14:5d:ec:93:4f:60:8e:e0:69:ca:ff:d2:a8:c0:
                    72:19:a5:81:c6:c4:45:dd:8e:fa:48:3a:4f:97:a2:
                    0d:41:c1:46:50:5a:22:6a:e8:bc:03:74:46:30:3d:
                    0b:f8:0f:f0:1b:07:60:53:8e:45:19:ae:08:3b:98:
                    8a:21:ca:ef:e0:f5:f4:20:2c:bc:7e:b1:ad:b7:d7:
                    91:72:b5:e6:20:ae:47:65:ac:73:39:bd:fb:b2:99:
                    e5:84:b2:96:e4:af:5a:a3:fb:b7:e9:89:38:b0:65:
                    62:a2:ec:1c:4a:92:c2:ef:2e:01:eb:ce:bb:fb:bf:
                    14:91:41:7e:2e:f3:2e:48:44:d5:1a:0f:41:a4:15:
                    d7:a3:a1:99:ec:7b:86:3b:95:71:3e:9a:72:6d:b1:
                    45:c3:6b:46:cb:80:62:20:73:81:bd:1a:9e:38:c9:
                    fd:eb:0b
                Exponent: 65537 (0x10001)
        X509v3 extensions:
            X509v3 Authority Key Identifier: 
                keyid:1C:10:5E:32:26:97:57:6B:95:9E:34:D1:49:A5:70:36:B5:49:9D:0F

            X509v3 Subject Key Identifier: 
                F1:34:99:5D:83:05:2E:E1:32:AE:CE:2C:54:8C:A2:A3:07:16:B6:54
            X509v3 Key Usage: critical
                Certificate Sign, CRL Sign
            X509v3 Basic Constraints: critical
                CA:TRUE, pathlen:0
    Signature Algorithm: sha256WithRSAEncryption
         4d:23:c5:c3:56:1d:eb:04:1c:14:ee:ea:f7:69:0b:54:a4:95:
         30:7c:ee:df:13:1b:de:2c:19:9e:7f:34:98:42:ec:3d:ca:72:
         00:31:8e:03:28:c0:6c:d0:21:ae:c4:fb:f9:b7:cb:25:dc:2e:
         2c:0a:7f:29:f1:45:27:aa:37:49:d2:43:6f:3e:db:4c:02:b4:
         da:5c:c9:6a:b8:03:5a:76:c3:39:4a:63:63:52:7e:5e:ed:3c:
         25:6e:64:d1:86:88:00:7a:1c:51:f6:f5:37:01:90:83:36:b5:
         ff:7d:7a:e0:f1:93:44:86:7a:a6:50:2d:48:02:c5:4f:c8:f8:
         4d:93:c1:d1:99:47:e2:d8:df:06:88:9c:e3:cb:d7:c1:b1:72:
         c6:c6:ab:20:9a:72:0f:70:8e:34:a3:73:d3:f9:6e:bb:2d:5b:
         94:12:e5:2a:e0:04:44:1a:9a:2c:03:11:80:1b:25:61:c7:ff:
         7f:9a:78:ac:c0:f1:a9:d0:e9:2e:5a:95:77:cc:43:dc:98:47:
         ed:f6:42:c1:c0:2b:dc:69:03:f8:83:4e:35:fd:ce:c4:5e:da:
         27:c0:df:36:01:ae:1e:d7:d2:80:bd:39:78:a3:9c:25:a2:af:
         96:ec:c1:89:3f:6b:6d:29:d2:d6:1b:bf:f4:bb:26:be:4f:11:
         6b:24:a6:23:28:39:44:58:ae:1b:2d:4f:ee:da:23:6c:ad:94:
         2c:85:54:2a:fe:8e:9a:07:8e:b4:f3:68:db:87:f2:18:8c:ff:
         b6:2b:c9:6b:fc:3d:38:a2:db:bc:3b:ce:23:42:83:61:6c:a3:
         26:28:e6:be:ef:71:98:66:e9:65:28:0e:5f:0b:5b:fa:f5:0c:
         89:12:2c:1b:6e:93:3f:62:2b:d5:0a:67:8c:c1:ea:60:92:3e:
         79:2a:71:ae:c9:95:8b:7d:a7:7d:d1:29:e3:e0:e0:ff:51:db:
         ef:4a:b0:72:fd:a4:4f:9a:09:05:06:c0:f5:e6:f8:b3:39:6c:
         7a:7f:45:02:98:c1:f4:0a:af:35:3c:3c:02:60:d7:be:1e:10:
         d8:3a:10:ff:1a:5f:2c:55:e4:34:6f:6e:79:bf:9f:ad:57:71:
         16:6a:e5:e7:87:68:86:bf:19:64:02:e8:1c:77:e5:ca:87:1e:
         6b:c5:c5:91:11:e6:28:ce:40:7a:ad:10:c5:0b:9a:23:a0:11:
         c8:7d:7b:36:5b:d7:b9:ae:b4:36:6f:cb:c5:ec:6e:a6:06:3b:
         bb:7b:1a:00:a7:b4:2f:ad:93:37:e9:b7:f0:8a:3d:15:c3:97:
         d8:4f:57:fe:93:0e:d3:5e:7d:20:f0:77:f2:b8:1a:82:89:9d:
         8a:67:3b:2d:d1:71:c5:63
SHA1 Fingerprint=D2:41:6E:2D:25:AA:9E:38:56:EF:20:47:19:CC:12:4C:49:1C:26:19
