-----BEGIN CERTIFICATE-----
MIIFXDCCA0SgAwIBAgICDlUwDQYJKoZIhvcNAQELBQAwPTELMAkGA1UEBhMCSlAx
FzAVBgNVBAoMDlJha3V0ZW4gTW9iaWxlMRUwEwYDVQQDDAxUZXN0IFJvb3QgQ0Ew
HhcNMTkwNzE2MDQxNDIxWhcNMzkwNzE1MDQxNDIxWjA9MQswCQYDVQQGEwJKUDEX
MBUGA1UECgwOUmFrdXRlbiBNb2JpbGUxFTATBgNVBAMMDFRlc3QgUm9vdCBDQTCC
AiIwDQYJKoZIhvcNAQEBBQADggIPADCCAgoCggIBALLVH4Abrth1aLoKfAvSbN/Y
NVRhXp5XcnPxNtkERAhAQvM5TnuhgwpZ3w53W5oFMQjxNkYwig/2QQE97rCHMMrk
WUxcIahMs5VXFXM6E5JZd21PEp0Z9YGrHxRIu2j1UAmZ+ec2arse9NbI4AhbYqXs
anxmZFnrGkvOkbku5uO5g24Zv0jvjVG/3ViUL/nI1vNJYWQGsILWZvY4HJKjn0zs
p45ej4O2SV/94QS0/CPH1hL7KAamfo0OE0zrE30XhbQMq0kopfqxoTlfjZ91MIJY
OTfqnrKYn92xRW5jD5MJDsnJSdqPmyVdZuoHrx0VTyEQc82dlGifFHCkJeOnO5ko
lqWwSe8/iJu8EgTcqMEqArwjE5yYhDb1VCy0hUCwcQL6AAEavX6t0AYu+u73Xs/m
PVbfkBYc85Ll9IQ/UCYm7Tnmb7YEth8KeriOJzJP2R5gUcaOVu8BSIHNxh+1oxNq
RwCDt+bIis7G8AJKpFlUk+Ge6hQ8aoZWCPH5+1M4fS165R64x6lyVC2wlFRbaRTg
KkprcMrb0vdznFe25WF/9AeTZOYt799RkCh8letuWX2mk5hN1FrMOzXJOeS7w7pc
PCXXLgl3mTtkVmzSASxWvC2sGNG3tn/h0bjckT6Hs+ZJVCKlWXHTxiPjQMq/KzLF
KDN2XbdMfTvTQV67WrvtAgMBAAGjZjBkMB8GA1UdIwQYMBaAFBwQXjIml1drlZ40
0UmlcDa1SZ0PMB0GA1UdDgQWBBQcEF4yJpdXa5WeNNFJpXA2tUmdDzAOBgNVHQ8B
Af8EBAMCAQYwEgYDVR0TAQH/BAgwBgEB/wIBATANBgkqhkiG9w0BAQsFAAOCAgEA
qbF5cMbkHAmh59tvJ7tbkEL96u2yG/Zufy7qf/DdZdIOitsat8qDQdq+5xQBYyc2
iCEA6icWRUDnBakQkOT3MYgO0DkcI5C0RqiSqNUajR4qB0+avZePPRvp+dzvykZ6
PAihsf/Bq8zHEukMlumCHUNywNxex/KSo+qRYXNcS5OoMT7ebrtkMWrCvuqcLEh9
B4sN4TdXebbL4o2cWtdc/h9TeB5lPtLb0STH2Skjbm3jikW9X4uxTIAdKEZAeRu9
dHqHJ4fCt7i7hWh3n8A18jOelhsaevHIAV34K4R5sFlD7qvSYVeuwC0NQ1kA06BX
cr+VkuFsJShicoLUMwrhVMQNNPLnZ34TQjqyvAx9Gp9KZKPQ9YDCR56uH8blCMjT
vNm4wAZEJ3tEAxo2x9ADlbKN5+/7W+lAB5s4r+TQJ7kqidAZMKTk3WVBoPGA/xiU
RIyfAElekPSe6yJDE4AsfvYZ+q/qwYmbFpZvpJ3s4thVt3OVhDc69aWNsNEVSGLN
f9sCxqFjxQ42TuNC5nAkitN4ZZ4mILZuvVGoWa0UvnKDDbxxkppTojQvM+BqYVkN
lvmFwzPnM+IQ5D/WoxaUkOyeGkttKClNcCtGFMWOpwliKykSlOSelA2EFBWlGKxL
xHmbTSF4/EcdCcJPhr+AInoCCqSTYkPGJmSoPlcs14g=
-----END CERTIFICATE-----
Certificate:
    Data:
        Version: 3 (0x2)
        Serial Number: 3669 (0xe55)
    Signature Algorithm: sha256WithRSAEncryption
        Issuer: C=JP, O=Rakuten Mobile, CN=Test Root CA
        Validity
            Not Before: Jul 16 04:14:21 2019 GMT
            Not After : Jul 15 04:14:21 2039 GMT
        Subject: C=JP, O=Rakuten Mobile, CN=Test Root CA
        Subject Public Key Info:
            Public Key Algorithm: rsaEncryption
                Public-Key: (4096 bit)
                Modulus:
                    00:b2:d5:1f:80:1b:ae:d8:75:68:ba:0a:7c:0b:d2:
                    6c:df:d8:35:54:61:5e:9e:57:72:73:f1:36:d9:04:
                    44:08:40:42:f3:39:4e:7b:a1:83:0a:59:df:0e:77:
                    5b:9a:05:31:08:f1:36:46:30:8a:0f:f6:41:01:3d:
                    ee:b0:87:30:ca:e4:59:4c:5c:21:a8:4c:b3:95:57:
                    15:73:3a:13:92:59:77:6d:4f:12:9d:19:f5:81:ab:
                    1f:14:48:bb:68:f5:50:09:99:f9:e7:36:6a:bb:1e:
                    f4:d6:c8:e0:08:5b:62:a5:ec:6a:7c:66:64:59:eb:
                    1a:4b:ce:91:b9:2e:e6:e3:b9:83:6e:19:bf:48:ef:
                    8d:51:bf:dd:58:94:2f:f9:c8:d6:f3:49:61:64:06:
                    b0:82:d6:66:f6:38:1c:92:a3:9f:4c:ec:a7:8e:5e:
                    8f:83:b6:49:5f:fd:e1:04:b4:fc:23:c7:d6:12:fb:
                    28:06:a6:7e:8d:0e:13:4c:eb:13:7d:17:85:b4:0c:
                    ab:49:28:a5:fa:b1:a1:39:5f:8d:9f:75:30:82:58:
                    39:37:ea:9e:b2:98:9f:dd:b1:45:6e:63:0f:93:09:
                    0e:c9:c9:49:da:8f:9b:25:5d:66:ea:07:af:1d:15:
                    4f:21:10:73:cd:9d:94:68:9f:14:70:a4:25:e3:a7:
                    3b:99:28:96:a5:b0:49:ef:3f:88:9b:bc:12:04:dc:
                    a8:c1:2a:02:bc:23:13:9c:98:84:36:f5:54:2c:b4:
                    85:40:b0:71:02:fa:00:01:1a:bd:7e:ad:d0:06:2e:
                    fa:ee:f7:5e:cf:e6:3d:56:df:90:16:1c:f3:92:e5:
                    f4:84:3f:50:26:26:ed:39:e6:6f:b6:04:b6:1f:0a:
                    7a:b8:8e:27:32:4f:d9:1e:60:51:c6:8e:56:ef:01:
                    48:81:cd:c6:1f:b5:a3:13:6a:47:00:83:b7:e6:c8:
                    8a:ce:c6:f0:02:4a:a4:59:54:93:e1:9e:ea:14:3c:
                    6a:86:56:08:f1:f9:fb:53:38:7d:2d:7a:e5:1e:b8:
                    c7:a9:72:54:2d:b0:94:54:5b:69:14:e0:2a:4a:6b:
                    70:ca:db:d2:f7:73:9c:57:b6:e5:61:7f:f4:07:93:
                    64:e6:2d:ef:df:51:90:28:7c:95:eb:6e:59:7d:a6:
                    93:98:4d:d4:5a:cc:3b:35:c9:39:e4:bb:c3:ba:5c:
                    3c:25:d7:2e:09:77:99:3b:64:56:6c:d2:01:2c:56:
                    bc:2d:ac:18:d1:b7:b6:7f:e1:d1:b8:dc:91:3e:87:
                    b3:e6:49:54:22:a5:59:71:d3:c6:23:e3:40:ca:bf:
                    2b:32:c5:28:33:76:5d:b7:4c:7d:3b:d3:41:5e:bb:
                    5a:bb:ed
                Exponent: 65537 (0x10001)
        X509v3 extensions:
            X509v3 Authority Key Identifier: 
                keyid:1C:10:5E:32:26:97:57:6B:95:9E:34:D1:49:A5:70:36:B5:49:9D:0F

            X509v3 Subject Key Identifier: 
                1C:10:5E:32:26:97:57:6B:95:9E:34:D1:49:A5:70:36:B5:49:9D:0F
            X509v3 Key Usage: critical
                Certificate Sign, CRL Sign
            X509v3 Basic Constraints: critical
                CA:TRUE, pathlen:1
    Signature Algorithm: sha256WithRSAEncryption
         a9:b1:79:70:c6:e4:1c:09:a1:e7:db:6f:27:bb:5b:90:42:fd:
         ea:ed:b2:1b:f6:6e:7f:2e:ea:7f:f0:dd:65:d2:0e:8a:db:1a:
         b7:ca:83:41:da:be:e7:14:01:63:27:36:88:21:00:ea:27:16:
         45:40:e7:05:a9:10:90:e4:f7:31:88:0e:d0:39:1c:23:90:b4:
         46:a8:92:a8:d5:1a:8d:1e:2a:07:4f:9a:bd:97:8f:3d:1b:e9:
         f9:dc:ef:ca:46:7a:3c:08:a1:b1:ff:c1:ab:cc:c7:12:e9:0c:
         96:e9:82:1d:43:72:c0:dc:5e:c7:f2:92:a3:ea:91:61:73:5c:
         4b:93:a8:31:3e:de:6e:bb:64:31:6a:c2:be:ea:9c:2c:48:7d:
         07:8b:0d:e1:37:57:79:b6:cb:e2:8d:9c:5a:d7:5c:fe:1f:53:
         78:1e:65:3e:d2:db:d1:24:c7:d9:29:23:6e:6d:e3:8a:45:bd:
         5f:8b:b1:4c:80:1d:28:46:40:79:1b:bd:74:7a:87:27:87:c2:
         b7:b8:bb:85:68:77:9f:c0:35:f2:33:9e:96:1b:1a:7a:f1:c8:
         01:5d:f8:2b:84:79:b0:59:43:ee:ab:d2:61:57:ae:c0:2d:0d:
         43:59:00:d3:a0:57:72:bf:95:92:e1:6c:25:28:62:72:82:d4:
         33:0a:e1:54:c4:0d:34:f2:e7:67:7e:13:42:3a:b2:bc:0c:7d:
         1a:9f:4a:64:a3:d0:f5:80:c2:47:9e:ae:1f:c6:e5:08:c8:d3:
         bc:d9:b8:c0:06:44:27:7b:44:03:1a:36:c7:d0:03:95:b2:8d:
         e7:ef:fb:5b:e9:40:07:9b:38:af:e4:d0:27:b9:2a:89:d0:19:
         30:a4:e4:dd:65:41:a0:f1:80:ff:18:94:44:8c:9f:00:49:5e:
         90:f4:9e:eb:22:43:13:80:2c:7e:f6:19:fa:af:ea:c1:89:9b:
         16:96:6f:a4:9d:ec:e2:d8:55:b7:73:95:84:37:3a:f5:a5:8d:
         b0:d1:15:48:62:cd:7f:db:02:c6:a1:63:c5:0e:36:4e:e3:42:
         e6:70:24:8a:d3:78:65:9e:26:20:b6:6e:bd:51:a8:59:ad:14:
         be:72:83:0d:bc:71:92:9a:53:a2:34:2f:33:e0:6a:61:59:0d:
         96:f9:85:c3:33:e7:33:e2:10:e4:3f:d6:a3:16:94:90:ec:9e:
         1a:4b:6d:28:29:4d:70:2b:46:14:c5:8e:a7:09:62:2b:29:12:
         94:e4:9e:94:0d:84:14:15:a5:18:ac:4b:c4:79:9b:4d:21:78:
         fc:47:1d:09:c2:4f:86:bf:80:22:7a:02:0a:a4:93:62:43:c6:
         26:64:a8:3e:57:2c:d7:88
SHA1 Fingerprint=80:6F:E3:FC:91:4A:87:53:01:B6:59:0C:31:E5:DF:EC:DB:90:1A:E3
