-----BEGIN CERTIFICATE-----
MIIFZTCCA02gAwIBAgIPAWv6o5fPZQ5hxva1vuNrMA0GCSqGSIb3DQEBCwUAMDgx
CzAJBgNVBAYTAkpQMRcwFQYDVQQKDA5SYWt1dGVuIE1vYmlsZTEQMA4GA1UEAwwH
Um9vdCBDQTAeFw0xOTA3MTYxMTU1NDJaFw0yOTA3MTMxMTU1NDJaMD4xCzAJBgNV
BAYTAkpQMRcwFQYDVQQKEw5SYWt1dGVuIE1vYmlsZTEWMBQGA1UEAxMNREMgSXNz
dWluZyBDQTCCAiIwDQYJKoZIhvcNAQEBBQADggIPADCCAgoCggIBAObjAbQ8TkzF
A+/WvSE6fzDf+rlvBKY1dJJbiJ2/j0lc+tj56dE7+BhZ2JVmAYIYfEoUw69dwxTR
44EdZln3ZVFmMuOdfxvF9A46pMKzH1skr8ErDgjNyJ9f/JOuQ29p/7BvLC55aRzk
yj99BYdzJWKs+5W7jQlv7/HyJ/PQ+rUEBOx4o/YiTucDFduWdV6/x5mcEbKD3ufL
66vUEf3MHGegDkOWAMTchl1RmaYDlf3IMsXC7M2bFPFa/9y/vzaaY6EhnJ861co6
rkOhTZe/kJZwqQYFmWczBPZK/9zRy3C1zA09tCBk+CDNBrNXe+3dMLFmnW4npxUQ
oceTPhaaDo5lA6HkkARwVWLrporFZ2B/th2Bqtu6uObLSB6JMA2jxmKwKukM8/jp
C9tKV9X03rHQIQultc63rivPdgQvqYgW1PVdzV1a3pZEMk5zv257+fxgfUGzfUh7
tx0OY+BkykSP6ZK/BsbI/BY+rsS0L/0lmC22NU1p+qVeN3ZRHoqntB+FymaBfQ3/
yfKkDNfnMua5GzLyyYGYUDDx71rtfrs3hGDiwjvE4B0IvsU0E7Oerk5gLqx8t0q/
MmhI+CJJS1bH2sRBMcqfRAv+eyByFsvLY7Er/ztveaabX9xEwyPNFOcU+SZMhipv
EUKmUcOAHxzx4HbYEFyM0Z7WgUdlTd1xAgMBAAGjZjBkMB8GA1UdIwQYMBaAFPUI
BlLFno+y5xdHlCX349iVyS75MB0GA1UdDgQWBBQzVhTSCf8F31Zf0Bu661qymMko
JzAOBgNVHQ8BAf8EBAMCAQYwEgYDVR0TAQH/BAgwBgEB/wIBADANBgkqhkiG9w0B
AQsFAAOCAgEADQEufjma/6fT/Do4Fh13lZhsowHSsGv5sFYly6224GsciE80ZwYg
R4EK/TAR0jorBXsu6sQc51pZ5SSHhIxfo2frfprTPaaWN6cZwfrb6UcnD/FaZ1jP
HzWrI3kRxG9JCDffzE8uMf8Rnc69n1j+TBerk4Ix3Zui2TaaF6LVceJ4RgeNkZl0
OFkGGFruHz/d83q7A6YjgN0iwMEabdtKH7Sq27LqGPeCS8NuGlrziNAxktdwaYlN
D5t6ntM/1nHYPmVqdioEU9vAnyB3BiXOlITPHEEMOSlItcUsJ6rN5DZJaJgkBxvN
Qdi6wmaDlxy8XFyy4KGFKWAl17FlfpqW5VtYQJ4aDpibGlGqamg0vm+IJDIGPlOs
KQcxG17cOw4MCflAtnzHKHBn52DegQKwxev2ZpqdwVw/NqPq0yTNEbCRqEyiq7+H
ljKEFiEjEjeXTcqR4DoCseA5UgcriuriV0OCvr8KTlviV4FEUu+IA9ut8YIvf2of
Zz0z8rO4H+Rb4tMi/yBRM09x3rEW4hXwO0qpCBNBa0wEJBxufF3f6l9efEle+YTR
XS92gutaoVluqMfRSJckjwWokToi32/FvF79guZymD0qHkOSi5dewsIW7zsdobvv
t2CWLfTAb9cx222ELBpVPkfcgUKfF4RCGWPzuAlK6OueuDrInOiz8ag=
-----END CERTIFICATE-----
Certificate:
    Data:
        Version: 3 (0x2)
        Serial Number:
            01:6b:fa:a3:97:cf:65:0e:61:c6:f6:b5:be:e3:6b
    Signature Algorithm: sha256WithRSAEncryption
        Issuer: C=JP, O=Rakuten Mobile, CN=Root CA
        Validity
            Not Before: Jul 16 11:55:42 2019 GMT
            Not After : Jul 13 11:55:42 2029 GMT
        Subject: C=JP, O=Rakuten Mobile, CN=DC Issuing CA
        Subject Public Key Info:
            Public Key Algorithm: rsaEncryption
                Public-Key: (4096 bit)
                Modulus:
                    00:e6:e3:01:b4:3c:4e:4c:c5:03:ef:d6:bd:21:3a:
                    7f:30:df:fa:b9:6f:04:a6:35:74:92:5b:88:9d:bf:
                    8f:49:5c:fa:d8:f9:e9:d1:3b:f8:18:59:d8:95:66:
                    01:82:18:7c:4a:14:c3:af:5d:c3:14:d1:e3:81:1d:
                    66:59:f7:65:51:66:32:e3:9d:7f:1b:c5:f4:0e:3a:
                    a4:c2:b3:1f:5b:24:af:c1:2b:0e:08:cd:c8:9f:5f:
                    fc:93:ae:43:6f:69:ff:b0:6f:2c:2e:79:69:1c:e4:
                    ca:3f:7d:05:87:73:25:62:ac:fb:95:bb:8d:09:6f:
                    ef:f1:f2:27:f3:d0:fa:b5:04:04:ec:78:a3:f6:22:
                    4e:e7:03:15:db:96:75:5e:bf:c7:99:9c:11:b2:83:
                    de:e7:cb:eb:ab:d4:11:fd:cc:1c:67:a0:0e:43:96:
                    00:c4:dc:86:5d:51:99:a6:03:95:fd:c8:32:c5:c2:
                    ec:cd:9b:14:f1:5a:ff:dc:bf:bf:36:9a:63:a1:21:
                    9c:9f:3a:d5:ca:3a:ae:43:a1:4d:97:bf:90:96:70:
                    a9:06:05:99:67:33:04:f6:4a:ff:dc:d1:cb:70:b5:
                    cc:0d:3d:b4:20:64:f8:20:cd:06:b3:57:7b:ed:dd:
                    30:b1:66:9d:6e:27:a7:15:10:a1:c7:93:3e:16:9a:
                    0e:8e:65:03:a1:e4:90:04:70:55:62:eb:a6:8a:c5:
                    67:60:7f:b6:1d:81:aa:db:ba:b8:e6:cb:48:1e:89:
                    30:0d:a3:c6:62:b0:2a:e9:0c:f3:f8:e9:0b:db:4a:
                    57:d5:f4:de:b1:d0:21:0b:a5:b5:ce:b7:ae:2b:cf:
                    76:04:2f:a9:88:16:d4:f5:5d:cd:5d:5a:de:96:44:
                    32:4e:73:bf:6e:7b:f9:fc:60:7d:41:b3:7d:48:7b:
                    b7:1d:0e:63:e0:64:ca:44:8f:e9:92:bf:06:c6:c8:
                    fc:16:3e:ae:c4:b4:2f:fd:25:98:2d:b6:35:4d:69:
                    fa:a5:5e:37:76:51:1e:8a:a7:b4:1f:85:ca:66:81:
                    7d:0d:ff:c9:f2:a4:0c:d7:e7:32:e6:b9:1b:32:f2:
                    c9:81:98:50:30:f1:ef:5a:ed:7e:bb:37:84:60:e2:
                    c2:3b:c4:e0:1d:08:be:c5:34:13:b3:9e:ae:4e:60:
                    2e:ac:7c:b7:4a:bf:32:68:48:f8:22:49:4b:56:c7:
                    da:c4:41:31:ca:9f:44:0b:fe:7b:20:72:16:cb:cb:
                    63:b1:2b:ff:3b:6f:79:a6:9b:5f:dc:44:c3:23:cd:
                    14:e7:14:f9:26:4c:86:2a:6f:11:42:a6:51:c3:80:
                    1f:1c:f1:e0:76:d8:10:5c:8c:d1:9e:d6:81:47:65:
                    4d:dd:71
                Exponent: 65537 (0x10001)
        X509v3 extensions:
            X509v3 Authority Key Identifier: 
                keyid:F5:08:06:52:C5:9E:8F:B2:E7:17:47:94:25:F7:E3:D8:95:C9:2E:F9

            X509v3 Subject Key Identifier: 
                33:56:14:D2:09:FF:05:DF:56:5F:D0:1B:BA:EB:5A:B2:98:C9:28:27
            X509v3 Key Usage: critical
                Certificate Sign, CRL Sign
            X509v3 Basic Constraints: critical
                CA:TRUE, pathlen:0
    Signature Algorithm: sha256WithRSAEncryption
         0d:01:2e:7e:39:9a:ff:a7:d3:fc:3a:38:16:1d:77:95:98:6c:
         a3:01:d2:b0:6b:f9:b0:56:25:cb:ad:b6:e0:6b:1c:88:4f:34:
         67:06:20:47:81:0a:fd:30:11:d2:3a:2b:05:7b:2e:ea:c4:1c:
         e7:5a:59:e5:24:87:84:8c:5f:a3:67:eb:7e:9a:d3:3d:a6:96:
         37:a7:19:c1:fa:db:e9:47:27:0f:f1:5a:67:58:cf:1f:35:ab:
         23:79:11:c4:6f:49:08:37:df:cc:4f:2e:31:ff:11:9d:ce:bd:
         9f:58:fe:4c:17:ab:93:82:31:dd:9b:a2:d9:36:9a:17:a2:d5:
         71:e2:78:46:07:8d:91:99:74:38:59:06:18:5a:ee:1f:3f:dd:
         f3:7a:bb:03:a6:23:80:dd:22:c0:c1:1a:6d:db:4a:1f:b4:aa:
         db:b2:ea:18:f7:82:4b:c3:6e:1a:5a:f3:88:d0:31:92:d7:70:
         69:89:4d:0f:9b:7a:9e:d3:3f:d6:71:d8:3e:65:6a:76:2a:04:
         53:db:c0:9f:20:77:06:25:ce:94:84:cf:1c:41:0c:39:29:48:
         b5:c5:2c:27:aa:cd:e4:36:49:68:98:24:07:1b:cd:41:d8:ba:
         c2:66:83:97:1c:bc:5c:5c:b2:e0:a1:85:29:60:25:d7:b1:65:
         7e:9a:96:e5:5b:58:40:9e:1a:0e:98:9b:1a:51:aa:6a:68:34:
         be:6f:88:24:32:06:3e:53:ac:29:07:31:1b:5e:dc:3b:0e:0c:
         09:f9:40:b6:7c:c7:28:70:67:e7:60:de:81:02:b0:c5:eb:f6:
         66:9a:9d:c1:5c:3f:36:a3:ea:d3:24:cd:11:b0:91:a8:4c:a2:
         ab:bf:87:96:32:84:16:21:23:12:37:97:4d:ca:91:e0:3a:02:
         b1:e0:39:52:07:2b:8a:ea:e2:57:43:82:be:bf:0a:4e:5b:e2:
         57:81:44:52:ef:88:03:db:ad:f1:82:2f:7f:6a:1f:67:3d:33:
         f2:b3:b8:1f:e4:5b:e2:d3:22:ff:20:51:33:4f:71:de:b1:16:
         e2:15:f0:3b:4a:a9:08:13:41:6b:4c:04:24:1c:6e:7c:5d:df:
         ea:5f:5e:7c:49:5e:f9:84:d1:5d:2f:76:82:eb:5a:a1:59:6e:
         a8:c7:d1:48:97:24:8f:05:a8:91:3a:22:df:6f:c5:bc:5e:fd:
         82:e6:72:98:3d:2a:1e:43:92:8b:97:5e:c2:c2:16:ef:3b:1d:
         a1:bb:ef:b7:60:96:2d:f4:c0:6f:d7:31:db:6d:84:2c:1a:55:
         3e:47:dc:81:42:9f:17:84:42:19:63:f3:b8:09:4a:e8:eb:9e:
         b8:3a:c8:9c:e8:b3:f1:a8
SHA1 Fingerprint=B3:22:36:F2:CC:F8:4E:1F:A7:1E:DA:48:BD:BB:CA:40:F6:AA:62:7D
